; Function Attrs: nounwind uwtable
define ptr @l_Lean_Compiler_LCNF_Code_forFVarM___rarg___lambda__2(ptr noundef %0, ptr noundef %1, ptr noundef %2, ptr noundef %3, ptr noundef %4, ptr readnone captures(none) %5) local_unnamed_addr #0 {
  %7 = getelementptr inbounds nuw i8, ptr %0, i64 40
  %8 = load ptr, ptr %7, align 8, !tbaa !4
  %9 = ptrtoint ptr %8 to i64
  %10 = and i64 %9, 1
  %.not = icmp eq i64 %10, 0
  br i1 %.not, label %11, label %lean_inc.exit19

11:                                               ; preds = %6
  %.val.i = load i32, ptr %8, align 4, !tbaa !8
  %12 = icmp sgt i32 %.val.i, 0
  br i1 %12, label %13, label %15, !prof !13

13:                                               ; preds = %11
  %14 = add nuw i32 %.val.i, 1
  store i32 %14, ptr %8, align 4, !tbaa !8
  br label %lean_inc.exit19

15:                                               ; preds = %11
  %.not.i20 = icmp eq i32 %.val.i, 0
  br i1 %.not.i20, label %lean_inc.exit19, label %16

16:                                               ; preds = %15
  tail call void @lean_inc_ref_cold(ptr noundef nonnull %8) #4
  br label %lean_inc.exit19

lean_inc.exit19:                                  ; preds = %16, %15, %13, %6
  %17 = ptrtoint ptr %0 to i64
  %18 = and i64 %17, 1
  %.not27 = icmp eq i64 %18, 0
  br i1 %.not27, label %19, label %lean_dec.exit

19:                                               ; preds = %lean_inc.exit19
  %20 = load i32, ptr %0, align 4, !tbaa !8
  %21 = icmp sgt i32 %20, 1
  br i1 %21, label %22, label %24, !prof !13

22:                                               ; preds = %19
  %23 = add nsw i32 %20, -1
  store i32 %23, ptr %0, align 4, !tbaa !8
  br label %lean_dec.exit

24:                                               ; preds = %19
  %.not.i = icmp eq i32 %20, 0
  br i1 %.not.i, label %lean_dec.exit, label %25

25:                                               ; preds = %24
  tail call void @lean_dec_ref_cold(ptr noundef nonnull %0) #4
  br label %lean_dec.exit

lean_dec.exit:                                    ; preds = %25, %24, %22, %lean_inc.exit19
  %26 = ptrtoint ptr %2 to i64
  %27 = and i64 %26, 1
  %.not28 = icmp eq i64 %27, 0
  br i1 %.not28, label %28, label %lean_inc.exit18

28:                                               ; preds = %lean_dec.exit
  %.val.i21 = load i32, ptr %2, align 4, !tbaa !8
  %29 = icmp sgt i32 %.val.i21, 0
  br i1 %29, label %30, label %32, !prof !13

30:                                               ; preds = %28
  %31 = add nuw i32 %.val.i21, 1
  store i32 %31, ptr %2, align 4, !tbaa !8
  br label %lean_inc.exit18

32:                                               ; preds = %28
  %.not.i22 = icmp eq i32 %.val.i21, 0
  br i1 %.not.i22, label %lean_inc.exit18, label %33

33:                                               ; preds = %32
  tail call void @lean_inc_ref_cold(ptr noundef nonnull %2) #4
  br label %lean_inc.exit18

lean_inc.exit18:                                  ; preds = %33, %32, %30, %lean_dec.exit
  %34 = ptrtoint ptr %1 to i64
  %35 = and i64 %34, 1
  %.not29 = icmp eq i64 %35, 0
  br i1 %.not29, label %36, label %lean_inc.exit

36:                                               ; preds = %lean_inc.exit18
  %.val.i24 = load i32, ptr %1, align 4, !tbaa !8
  %37 = icmp sgt i32 %.val.i24, 0
  br i1 %37, label %38, label %40, !prof !13

38:                                               ; preds = %36
  %39 = add nuw i32 %.val.i24, 1
  store i32 %39, ptr %1, align 4, !tbaa !8
  br label %lean_inc.exit

40:                                               ; preds = %36
  %.not.i25 = icmp eq i32 %.val.i24, 0
  br i1 %.not.i25, label %lean_inc.exit, label %41

41:                                               ; preds = %40
  tail call void @lean_inc_ref_cold(ptr noundef nonnull %1) #4
  br label %lean_inc.exit

lean_inc.exit:                                    ; preds = %41, %40, %38, %lean_inc.exit18
  %42 = tail call ptr @l_Lean_Compiler_LCNF_Code_forFVarM___rarg(ptr noundef %1, ptr noundef %2, ptr noundef %8)
  tail call void @lean_inc_heartbeat() #4
  %43 = tail call noalias ptr @mi_malloc_small(i64 noundef 48) #4
  %44 = icmp eq ptr %43, null
  br i1 %44, label %45, label %lean_alloc_closure.exit

45:                                               ; preds = %lean_inc.exit
  tail call void @lean_internal_panic_out_of_memory() #5
  unreachable

lean_alloc_closure.exit:                          ; preds = %lean_inc.exit
  %46 = getelementptr inbounds nuw i8, ptr %43, i64 4
  store i32 1, ptr %43, align 4, !tbaa !8
  store i32 -184549328, ptr %46, align 4
  %47 = getelementptr inbounds nuw i8, ptr %43, i64 8
  store ptr @l_Lean_Compiler_LCNF_Code_forFVarM___rarg___lambda__1___boxed, ptr %47, align 8, !tbaa !4
  %48 = getelementptr inbounds nuw i8, ptr %43, i64 16
  store i16 4, ptr %48, align 8, !tbaa !11
  %49 = getelementptr inbounds nuw i8, ptr %43, i64 18
  store i16 3, ptr %49, align 2, !tbaa !11
  %50 = getelementptr inbounds nuw i8, ptr %43, i64 24
  store ptr %1, ptr %50, align 8, !tbaa !4
  %51 = getelementptr inbounds nuw i8, ptr %43, i64 32
  store ptr %2, ptr %51, align 8, !tbaa !4
  %52 = getelementptr inbounds nuw i8, ptr %43, i64 40
  store ptr %3, ptr %52, align 8, !tbaa !4
  %53 = tail call ptr @lean_apply_4(ptr noundef %4, ptr noundef nonnull inttoptr (i64 1 to ptr), ptr noundef nonnull inttoptr (i64 1 to ptr), ptr noundef %42, ptr noundef nonnull %43) #4
  ret ptr %53
}